target datalayout = "e-m:e-p270:32:32-p271:32:32-p272:64:64-i64:64-i128:128-f80:128-n8:16:32:64-S128"
target triple = "x86_64-pc-linux-gnu"

%struct.ws_mempbrk_pattern = type { [256 x i8], i8, <2 x i64> }
%struct._uri_offset_info = type { i32, i32, i32, i32, i32, i32, i32, i32, i32, i32, i32, i32, i32, i32, i32 }

@.str.857 = private unnamed_addr constant [4 x i8] c"sip\00", align 1
@pbrk_comma_semi = internal global %struct.ws_mempbrk_pattern zeroinitializer, align 16
@pbrk_param_end = internal global %struct.ws_mempbrk_pattern zeroinitializer, align 16
@pbrk_param_end_colon_brackets = internal global %struct.ws_mempbrk_pattern zeroinitializer, align 16
@.str.1026 = private unnamed_addr constant [55 x i8] c"%s:%u: failed assertion \22DISSECTOR_ASSERT_NOT_REACHED\22\00", align 1
@.str.1027 = private unnamed_addr constant [29 x i8] c"epan/dissectors/packet-sip.c\00", align 1

; Function Attrs: null_pointer_is_valid sspstrong uwtable
define internal i32 @dissect_sip_uri(ptr noundef %0, ptr noundef %1, i32 noundef %2, i32 noundef %3, ptr noundef %4) #0 {
  %6 = alloca i32, align 4
  %7 = alloca ptr, align 8
  %8 = alloca ptr, align 8
  %9 = alloca i32, align 4
  %10 = alloca i32, align 4
  %11 = alloca ptr, align 8
  %12 = alloca i8, align 1
  %13 = alloca i32, align 4
  %14 = alloca i32, align 4
  %15 = alloca i32, align 4
  %16 = alloca i8, align 1
  %17 = alloca i32, align 4
  %18 = alloca i32, align 4
  store ptr %0, ptr %7, align 8
  store ptr %1, ptr %8, align 8
  store i32 %2, ptr %9, align 4
  store i32 %3, ptr %10, align 4
  store ptr %4, ptr %11, align 8
  call void @llvm.lifetime.start.p0(i64 1, ptr %12) #18
  store i8 0, ptr %12, align 1
  call void @llvm.lifetime.start.p0(i64 4, ptr %13) #18
  call void @llvm.lifetime.start.p0(i64 4, ptr %14) #18
  call void @llvm.lifetime.start.p0(i64 4, ptr %15) #18
  call void @llvm.lifetime.start.p0(i64 1, ptr %16) #18
  store i8 0, ptr %16, align 1
  %19 = load ptr, ptr %7, align 8
  %20 = load i32, ptr %9, align 4
  %21 = load i32, ptr %10, align 4
  %22 = load i32, ptr %9, align 4
  %23 = sub i32 %21, %22
  %24 = call i32 @tvb_skip_wsp(ptr noundef %19, i32 noundef %20, i32 noundef %23)
  store i32 %24, ptr %13, align 4
  %25 = load i32, ptr %13, align 4
  %26 = load i32, ptr %10, align 4
  %27 = icmp sge i32 %25, %26
  br i1 %27, label %28, label %29

28:                                               ; preds = %5
  store i32 -1, ptr %6, align 4
  store i32 1, ptr %17, align 4
  br label %248

29:                                               ; preds = %5
  %30 = load i32, ptr %13, align 4
  %31 = load ptr, ptr %11, align 8
  %32 = getelementptr inbounds nuw %struct._uri_offset_info, ptr %31, i32 0, i32 3
  store i32 %30, ptr %32, align 4
  %33 = load ptr, ptr %7, align 8
  %34 = load i32, ptr %13, align 4
  %35 = call i32 @tvb_strneql(ptr noundef %33, i32 noundef %34, ptr noundef @.str.857, i64 noundef 3)
  %36 = icmp ne i32 %35, 0
  br i1 %36, label %37, label %47

37:                                               ; preds = %29
  %38 = load ptr, ptr %11, align 8
  %39 = getelementptr inbounds nuw %struct._uri_offset_info, ptr %38, i32 0, i32 4
  %40 = load i32, ptr %39, align 4
  %41 = icmp ne i32 %40, -1
  br i1 %41, label %42, label %46

42:                                               ; preds = %37
  %43 = load ptr, ptr %11, align 8
  %44 = getelementptr inbounds nuw %struct._uri_offset_info, ptr %43, i32 0, i32 8
  %45 = load i32, ptr %44, align 4
  store i32 %45, ptr %6, align 4
  store i32 1, ptr %17, align 4
  br label %248

46:                                               ; preds = %37
  store i32 -1, ptr %6, align 4
  store i32 1, ptr %17, align 4
  br label %248

47:                                               ; preds = %29
  %48 = load ptr, ptr %11, align 8
  %49 = getelementptr inbounds nuw %struct._uri_offset_info, ptr %48, i32 0, i32 0
  store i32 1, ptr %49, align 4
  %50 = load ptr, ptr %11, align 8
  %51 = getelementptr inbounds nuw %struct._uri_offset_info, ptr %50, i32 0, i32 4
  %52 = load i32, ptr %51, align 4
  %53 = icmp eq i32 %52, -1
  br i1 %53, label %54, label %79

54:                                               ; preds = %47
  call void @llvm.lifetime.start.p0(i64 4, ptr %18) #18
  %55 = load ptr, ptr %7, align 8
  %56 = load i32, ptr %13, align 4
  %57 = load i32, ptr %10, align 4
  %58 = load i32, ptr %13, align 4
  %59 = sub i32 %57, %58
  %60 = call i32 @tvb_ws_mempbrk_pattern_uint8(ptr noundef %55, i32 noundef %56, i32 noundef %59, ptr noundef @pbrk_comma_semi, ptr noundef null)
  store i32 %60, ptr %18, align 4
  %61 = load i32, ptr %18, align 4
  %62 = icmp ne i32 %61, -1
  br i1 %62, label %63, label %68

63:                                               ; preds = %54
  %64 = load i32, ptr %18, align 4
  %65 = sub i32 %64, 1
  %66 = load ptr, ptr %11, align 8
  %67 = getelementptr inbounds nuw %struct._uri_offset_info, ptr %66, i32 0, i32 4
  store i32 %65, ptr %67, align 4
  br label %73

68:                                               ; preds = %54
  %69 = load i32, ptr %10, align 4
  %70 = sub i32 %69, 3
  %71 = load ptr, ptr %11, align 8
  %72 = getelementptr inbounds nuw %struct._uri_offset_info, ptr %71, i32 0, i32 4
  store i32 %70, ptr %72, align 4
  br label %73

73:                                               ; preds = %68, %63
  %74 = load ptr, ptr %11, align 8
  %75 = getelementptr inbounds nuw %struct._uri_offset_info, ptr %74, i32 0, i32 4
  %76 = load i32, ptr %75, align 4
  %77 = load ptr, ptr %11, align 8
  %78 = getelementptr inbounds nuw %struct._uri_offset_info, ptr %77, i32 0, i32 8
  store i32 %76, ptr %78, align 4
  call void @llvm.lifetime.end.p0(i64 4, ptr %18) #18
  br label %79

79:                                               ; preds = %73, %47
  %80 = load ptr, ptr %7, align 8
  %81 = load ptr, ptr %11, align 8
  %82 = getelementptr inbounds nuw %struct._uri_offset_info, ptr %81, i32 0, i32 3
  %83 = load i32, ptr %82, align 4
  %84 = load ptr, ptr %11, align 8
  %85 = getelementptr inbounds nuw %struct._uri_offset_info, ptr %84, i32 0, i32 4
  %86 = load i32, ptr %85, align 4
  %87 = load ptr, ptr %11, align 8
  %88 = getelementptr inbounds nuw %struct._uri_offset_info, ptr %87, i32 0, i32 3
  %89 = load i32, ptr %88, align 4
  %90 = sub i32 %86, %89
  %91 = call i32 @tvb_find_uint8(ptr noundef %80, i32 noundef %83, i32 noundef %90, i8 noundef zeroext 64)
  store i32 %91, ptr %14, align 4
  %92 = load i32, ptr %14, align 4
  %93 = icmp eq i32 %92, -1
  br i1 %93, label %94, label %110

94:                                               ; preds = %79
  %95 = load ptr, ptr %7, align 8
  %96 = load ptr, ptr %11, align 8
  %97 = getelementptr inbounds nuw %struct._uri_offset_info, ptr %96, i32 0, i32 3
  %98 = load i32, ptr %97, align 4
  %99 = load ptr, ptr %11, align 8
  %100 = getelementptr inbounds nuw %struct._uri_offset_info, ptr %99, i32 0, i32 4
  %101 = load i32, ptr %100, align 4
  %102 = load ptr, ptr %11, align 8
  %103 = getelementptr inbounds nuw %struct._uri_offset_info, ptr %102, i32 0, i32 3
  %104 = load i32, ptr %103, align 4
  %105 = sub i32 %101, %104
  %106 = call i32 @tvb_find_uint8(ptr noundef %95, i32 noundef %98, i32 noundef %105, i8 noundef zeroext 58)
  %107 = add i32 %106, 1
  %108 = load ptr, ptr %11, align 8
  %109 = getelementptr inbounds nuw %struct._uri_offset_info, ptr %108, i32 0, i32 11
  store i32 %107, ptr %109, align 4
  br label %147

110:                                              ; preds = %79
  %111 = load ptr, ptr %7, align 8
  %112 = load ptr, ptr %11, align 8
  %113 = getelementptr inbounds nuw %struct._uri_offset_info, ptr %112, i32 0, i32 3
  %114 = load i32, ptr %113, align 4
  %115 = load ptr, ptr %11, align 8
  %116 = getelementptr inbounds nuw %struct._uri_offset_info, ptr %115, i32 0, i32 4
  %117 = load i32, ptr %116, align 4
  %118 = load ptr, ptr %11, align 8
  %119 = getelementptr inbounds nuw %struct._uri_offset_info, ptr %118, i32 0, i32 3
  %120 = load i32, ptr %119, align 4
  %121 = sub i32 %117, %120
  %122 = call i32 @tvb_find_uint8(ptr noundef %111, i32 noundef %114, i32 noundef %121, i8 noundef zeroext 58)
  %123 = add i32 %122, 1
  %124 = load ptr, ptr %11, align 8
  %125 = getelementptr inbounds nuw %struct._uri_offset_info, ptr %124, i32 0, i32 9
  store i32 %123, ptr %125, align 4
  %126 = load ptr, ptr %7, align 8
  %127 = load ptr, ptr %11, align 8
  %128 = getelementptr inbounds nuw %struct._uri_offset_info, ptr %127, i32 0, i32 9
  %129 = load i32, ptr %128, align 4
  %130 = load ptr, ptr %11, align 8
  %131 = getelementptr inbounds nuw %struct._uri_offset_info, ptr %130, i32 0, i32 4
  %132 = load i32, ptr %131, align 4
  %133 = load ptr, ptr %11, align 8
  %134 = getelementptr inbounds nuw %struct._uri_offset_info, ptr %133, i32 0, i32 3
  %135 = load i32, ptr %134, align 4
  %136 = sub i32 %132, %135
  %137 = call i32 @tvb_find_uint8(ptr noundef %126, i32 noundef %129, i32 noundef %136, i8 noundef zeroext 64)
  %138 = sub i32 %137, 1
  %139 = load ptr, ptr %11, align 8
  %140 = getelementptr inbounds nuw %struct._uri_offset_info, ptr %139, i32 0, i32 10
  store i32 %138, ptr %140, align 4
  %141 = load ptr, ptr %11, align 8
  %142 = getelementptr inbounds nuw %struct._uri_offset_info, ptr %141, i32 0, i32 10
  %143 = load i32, ptr %142, align 4
  %144 = add i32 %143, 2
  %145 = load ptr, ptr %11, align 8
  %146 = getelementptr inbounds nuw %struct._uri_offset_info, ptr %145, i32 0, i32 11
  store i32 %144, ptr %146, align 4
  br label %147

147:                                              ; preds = %110, %94
  %148 = load ptr, ptr %11, align 8
  %149 = getelementptr inbounds nuw %struct._uri_offset_info, ptr %148, i32 0, i32 11
  %150 = load i32, ptr %149, align 4
  store i32 %150, ptr %15, align 4
  %151 = load ptr, ptr %7, align 8
  %152 = load i32, ptr %15, align 4
  %153 = call zeroext i8 @tvb_get_uint8(ptr noundef %151, i32 noundef %152)
  %154 = zext i8 %153 to i32
  %155 = icmp eq i32 %154, 91
  %156 = zext i1 %155 to i8
  store i8 %156, ptr %16, align 1
  br label %157

157:                                              ; preds = %192, %147
  %158 = load i32, ptr %15, align 4
  %159 = load i32, ptr %10, align 4
  %160 = icmp slt i32 %158, %159
  br i1 %160, label %161, label %193

161:                                              ; preds = %157
  %162 = load i32, ptr %15, align 4
  %163 = add i32 %162, 1
  store i32 %163, ptr %15, align 4
  %164 = load ptr, ptr %7, align 8
  %165 = load i32, ptr %15, align 4
  %166 = load i32, ptr %10, align 4
  %167 = load i32, ptr %15, align 4
  %168 = sub i32 %166, %167
  %169 = call i32 @tvb_ws_mempbrk_pattern_uint8(ptr noundef %164, i32 noundef %165, i32 noundef %168, ptr noundef @pbrk_param_end_colon_brackets, ptr noundef %12)
  store i32 %169, ptr %15, align 4
  %170 = load i32, ptr %15, align 4
  %171 = icmp eq i32 %170, -1
  br i1 %171, label %172, label %174

172:                                              ; preds = %161
  %173 = load i32, ptr %10, align 4
  store i32 %173, ptr %15, align 4
  br label %193

174:                                              ; preds = %161
  %175 = load i8, ptr %12, align 1
  %176 = zext i8 %175 to i32
  switch i32 %176, label %191 [
    i32 62, label %177
    i32 44, label %177
    i32 59, label %178
    i32 63, label %183
    i32 32, label %183
    i32 13, label %183
    i32 58, label %184
    i32 91, label %189
    i32 93, label %190
  ]

177:                                              ; preds = %174, %174
  br label %194

178:                                              ; preds = %174
  %179 = load i32, ptr %15, align 4
  %180 = add i32 %179, 1
  %181 = load ptr, ptr %11, align 8
  %182 = getelementptr inbounds nuw %struct._uri_offset_info, ptr %181, i32 0, i32 5
  store i32 %180, ptr %182, align 4
  br label %194

183:                                              ; preds = %174, %174, %174
  br label %194

184:                                              ; preds = %174
  %185 = load i8, ptr %16, align 1, !range !12, !noundef !13
  %186 = trunc i8 %185 to i1
  br i1 %186, label %188, label %187

187:                                              ; preds = %184
  br label %194

188:                                              ; preds = %184
  br label %192

189:                                              ; preds = %174
  store i8 1, ptr %16, align 1
  br label %192

190:                                              ; preds = %174
  store i8 0, ptr %16, align 1
  br label %192

191:                                              ; preds = %174
  call void (ptr, ...) @proto_report_dissector_bug(ptr noundef @.str.1026, ptr noundef @.str.1027, i32 noundef 1442) #23
  unreachable

192:                                              ; preds = %190, %189, %188
  br label %157, !llvm.loop !46

193:                                              ; preds = %172, %157
  br label %194

194:                                              ; preds = %193, %187, %183, %178, %177
  %195 = load i32, ptr %15, align 4
  %196 = sub i32 %195, 1
  %197 = load ptr, ptr %11, align 8
  %198 = getelementptr inbounds nuw %struct._uri_offset_info, ptr %197, i32 0, i32 12
  store i32 %196, ptr %198, align 4
  %199 = load i8, ptr %12, align 1
  %200 = zext i8 %199 to i32
  %201 = icmp eq i32 %200, 58
  br i1 %201, label %202, label %244

202:                                              ; preds = %194
  %203 = load i32, ptr %15, align 4
  %204 = add i32 %203, 1
  %205 = load ptr, ptr %11, align 8
  %206 = getelementptr inbounds nuw %struct._uri_offset_info, ptr %205, i32 0, i32 13
  store i32 %204, ptr %206, align 4
  %207 = load ptr, ptr %11, align 8
  %208 = getelementptr inbounds nuw %struct._uri_offset_info, ptr %207, i32 0, i32 13
  %209 = load i32, ptr %208, align 4
  store i32 %209, ptr %15, align 4
  br label %210

210:                                              ; preds = %202
  %211 = load i32, ptr %15, align 4
  %212 = load i32, ptr %10, align 4
  %213 = icmp slt i32 %211, %212
  br i1 %213, label %214, label %238

214:                                              ; preds = %210
  %215 = load i32, ptr %15, align 4
  %216 = add i32 %215, 1
  store i32 %216, ptr %15, align 4
  %217 = load ptr, ptr %7, align 8
  %218 = load i32, ptr %15, align 4
  %219 = load i32, ptr %10, align 4
  %220 = load i32, ptr %15, align 4
  %221 = sub i32 %219, %220
  %222 = call i32 @tvb_ws_mempbrk_pattern_uint8(ptr noundef %217, i32 noundef %218, i32 noundef %221, ptr noundef @pbrk_param_end, ptr noundef %12)
  store i32 %222, ptr %15, align 4
  %223 = load i32, ptr %15, align 4
  %224 = icmp eq i32 %223, -1
  br i1 %224, label %225, label %227

225:                                              ; preds = %214
  %226 = load i32, ptr %10, align 4
  store i32 %226, ptr %15, align 4
  br label %238

227:                                              ; preds = %214
  %228 = load i8, ptr %12, align 1
  %229 = zext i8 %228 to i32
  switch i32 %229, label %237 [
    i32 62, label %230
    i32 44, label %230
    i32 59, label %231
    i32 63, label %236
    i32 32, label %236
    i32 13, label %236
  ]

230:                                              ; preds = %227, %227
  br label %239

231:                                              ; preds = %227
  %232 = load i32, ptr %15, align 4
  %233 = add i32 %232, 1
  %234 = load ptr, ptr %11, align 8
  %235 = getelementptr inbounds nuw %struct._uri_offset_info, ptr %234, i32 0, i32 5
  store i32 %233, ptr %235, align 4
  br label %239

236:                                              ; preds = %227, %227, %227
  br label %239

237:                                              ; preds = %227
  call void (ptr, ...) @proto_report_dissector_bug(ptr noundef @.str.1026, ptr noundef @.str.1027, i32 noundef 1478) #23
  unreachable

238:                                              ; preds = %225, %210
  br label %239

239:                                              ; preds = %238, %236, %231, %230
  %240 = load i32, ptr %15, align 4
  %241 = sub i32 %240, 1
  %242 = load ptr, ptr %11, align 8
  %243 = getelementptr inbounds nuw %struct._uri_offset_info, ptr %242, i32 0, i32 14
  store i32 %241, ptr %243, align 4
  br label %244

244:                                              ; preds = %239, %194
  %245 = load ptr, ptr %11, align 8
  %246 = getelementptr inbounds nuw %struct._uri_offset_info, ptr %245, i32 0, i32 8
  %247 = load i32, ptr %246, align 4
  store i32 %247, ptr %6, align 4
  store i32 1, ptr %17, align 4
  br label %248

248:                                              ; preds = %244, %46, %42, %28
  call void @llvm.lifetime.end.p0(i64 1, ptr %16) #18
  call void @llvm.lifetime.end.p0(i64 4, ptr %15) #18
  call void @llvm.lifetime.end.p0(i64 4, ptr %14) #18
  call void @llvm.lifetime.end.p0(i64 4, ptr %13) #18
  call void @llvm.lifetime.end.p0(i64 1, ptr %12) #18
  %249 = load i32, ptr %6, align 4
  ret i32 %249
}