; Function Attrs: null_pointer_is_valid sspstrong uwtable
define internal fastcc i32 @dissect_sip_uri(ptr noundef %0, i32 noundef %1, i32 noundef %2, ptr noundef captures(none) %3) unnamed_addr #0 {
  %5 = alloca i8, align 1
  call void @llvm.lifetime.start.p0(i64 1, ptr nonnull %5) #18
  store i8 0, ptr %5, align 1
  %6 = sub i32 %2, %1
  %7 = tail call i32 @tvb_skip_wsp(ptr noundef %0, i32 noundef %1, i32 noundef %6)
  %.not = icmp slt i32 %7, %2
  br i1 %.not, label %8, label %86

8:                                                ; preds = %4
  %9 = getelementptr inbounds nuw i8, ptr %3, i64 12
  store i32 %7, ptr %9, align 4
  %10 = tail call i32 @tvb_strneql(ptr noundef %0, i32 noundef %7, ptr noundef nonnull @.str.857, i64 noundef 3)
  %.not91 = icmp eq i32 %10, 0
  br i1 %.not91, label %14, label %11

11:                                               ; preds = %8
  %12 = getelementptr inbounds nuw i8, ptr %3, i64 16
  %13 = load i32, ptr %12, align 4
  %.not93 = icmp eq i32 %13, -1
  br i1 %.not93, label %86, label %.sink.split34

14:                                               ; preds = %8
  store i32 1, ptr %3, align 4
  %15 = getelementptr inbounds nuw i8, ptr %3, i64 16
  %16 = load i32, ptr %15, align 4
  %17 = icmp eq i32 %16, -1
  br i1 %17, label %18, label %24

18:                                               ; preds = %14
  %19 = sub i32 %2, %7
  %20 = tail call i32 @tvb_ws_mempbrk_pattern_uint8(ptr noundef %0, i32 noundef %7, i32 noundef %19, ptr noundef nonnull @pbrk_comma_semi, ptr noundef null)
  %.not92 = icmp eq i32 %20, -1
  %21 = add i32 %2, -3
  %22 = add i32 %20, -1
  %storemerge = select i1 %.not92, i32 %21, i32 %22
  store i32 %storemerge, ptr %15, align 4
  %23 = getelementptr inbounds nuw i8, ptr %3, i64 32
  store i32 %storemerge, ptr %23, align 4
  br label %24

24:                                               ; preds = %18, %14
  %25 = phi i32 [ %storemerge, %18 ], [ %16, %14 ]
  %26 = load i32, ptr %9, align 4
  %27 = sub i32 %25, %26
  %28 = tail call i32 @tvb_find_uint8(ptr noundef %0, i32 noundef %26, i32 noundef %27, i8 noundef zeroext 64)
  %29 = icmp eq i32 %28, -1
  %30 = load i32, ptr %9, align 4
  %31 = load i32, ptr %15, align 4
  %32 = sub i32 %31, %30
  %33 = tail call i32 @tvb_find_uint8(ptr noundef %0, i32 noundef %30, i32 noundef %32, i8 noundef zeroext 58)
  br i1 %29, label %43, label %34

34:                                               ; preds = %24
  %35 = add i32 %33, 1
  %36 = getelementptr inbounds nuw i8, ptr %3, i64 36
  store i32 %35, ptr %36, align 4
  %37 = load i32, ptr %15, align 4
  %38 = load i32, ptr %9, align 4
  %39 = sub i32 %37, %38
  %40 = tail call i32 @tvb_find_uint8(ptr noundef %0, i32 noundef %35, i32 noundef %39, i8 noundef zeroext 64)
  %41 = add i32 %40, -1
  %42 = getelementptr inbounds nuw i8, ptr %3, i64 40
  store i32 %41, ptr %42, align 4
  br label %43

43:                                               ; preds = %24, %34
  %.sink.in = phi i32 [ %40, %34 ], [ %33, %24 ]
  %.sink = add i32 %.sink.in, 1
  %44 = getelementptr inbounds nuw i8, ptr %3, i64 44
  store i32 %.sink, ptr %44, align 4
  %45 = tail call zeroext i8 @tvb_get_uint8(ptr noundef %0, i32 noundef %.sink)
  %46 = icmp slt i32 %.sink, %2
  br i1 %46, label %.lr.ph.preheader, label %.sink.split

.lr.ph.preheader:                                 ; preds = %43
  %47 = icmp eq i8 %45, 91
  br label %.lr.ph

.lr.ph:                                           ; preds = %.lr.ph.preheader, %61
  %.08113 = phi i1 [ %.1, %61 ], [ %47, %.lr.ph.preheader ]
  %.08212 = phi i32 [ %50, %61 ], [ %.sink, %.lr.ph.preheader ]
  %48 = add nsw i32 %.08212, 1
  %49 = sub i32 %2, %48
  %50 = call i32 @tvb_ws_mempbrk_pattern_uint8(ptr noundef %0, i32 noundef %48, i32 noundef %49, ptr noundef nonnull @pbrk_param_end_colon_brackets, ptr noundef nonnull %5)
  %51 = icmp eq i32 %50, -1
  %.pr.pre.pre = load i8, ptr %5, align 1
  br i1 %51, label %.loopexit, label %52

52:                                               ; preds = %.lr.ph
  switch i8 %.pr.pre.pre, label %60 [
    i8 62, label %.loopexit
    i8 44, label %.loopexit
    i8 59, label %.thread3
    i8 63, label %.loopexit
    i8 32, label %.loopexit
    i8 13, label %.loopexit
    i8 58, label %56
    i8 91, label %61
    i8 93, label %59
  ]

.thread3:                                         ; preds = %52
  %53 = add nuw i32 %50, 1
  %54 = getelementptr inbounds nuw i8, ptr %3, i64 20
  store i32 %53, ptr %54, align 4
  %55 = add i32 %50, -1
  br label %.sink.split

56:                                               ; preds = %52
  br i1 %.08113, label %61, label %.thread

.thread:                                          ; preds = %56
  %57 = add i32 %50, -1
  %58 = getelementptr inbounds nuw i8, ptr %3, i64 48
  store i32 %57, ptr %58, align 4
  br label %66

59:                                               ; preds = %52
  br label %61

60:                                               ; preds = %52
  call void (ptr, ...) @proto_report_dissector_bug(ptr noundef nonnull @.str.1026, ptr noundef nonnull @.str.1027, i32 noundef 1442) #23
  unreachable

61:                                               ; preds = %52, %56, %59
  %.1 = phi i1 [ false, %59 ], [ true, %56 ], [ true, %52 ]
  %62 = icmp slt i32 %50, %2
  br i1 %62, label %.lr.ph, label %.loopexit, !llvm.loop !50

.loopexit:                                        ; preds = %52, %52, %52, %52, %52, %61, %.lr.ph
  %.183 = phi i32 [ %2, %.lr.ph ], [ %50, %61 ], [ %50, %52 ], [ %50, %52 ], [ %50, %52 ], [ %50, %52 ], [ %50, %52 ]
  %63 = add i32 %.183, -1
  %64 = getelementptr inbounds nuw i8, ptr %3, i64 48
  store i32 %63, ptr %64, align 4
  %65 = icmp eq i8 %.pr.pre.pre, 58
  br i1 %65, label %66, label %.sink.split34

66:                                               ; preds = %.thread, %.loopexit
  %.1832 = phi i32 [ %50, %.thread ], [ %.183, %.loopexit ]
  %67 = add i32 %.1832, 1
  %68 = getelementptr inbounds nuw i8, ptr %3, i64 52
  store i32 %67, ptr %68, align 4
  %69 = icmp slt i32 %67, %2
  br i1 %69, label %70, label %81

70:                                               ; preds = %66
  %71 = add i32 %.1832, 2
  %72 = sub i32 %2, %71
  %73 = call i32 @tvb_ws_mempbrk_pattern_uint8(ptr noundef %0, i32 noundef %71, i32 noundef %72, ptr noundef nonnull @pbrk_param_end, ptr noundef nonnull %5)
  %74 = icmp eq i32 %73, -1
  br i1 %74, label %81, label %75

75:                                               ; preds = %70
  %76 = load i8, ptr %5, align 1
  switch i8 %76, label %80 [
    i8 62, label %81
    i8 44, label %81
    i8 59, label %77
    i8 63, label %81
    i8 32, label %81
    i8 13, label %81
  ]

77:                                               ; preds = %75
  %78 = add nuw i32 %73, 1
  %79 = getelementptr inbounds nuw i8, ptr %3, i64 20
  store i32 %78, ptr %79, align 4
  br label %81

80:                                               ; preds = %75
  call void (ptr, ...) @proto_report_dissector_bug(ptr noundef nonnull @.str.1026, ptr noundef nonnull @.str.1027, i32 noundef 1478) #23
  unreachable

81:                                               ; preds = %70, %66, %75, %75, %75, %75, %75, %77
  %.2 = phi i32 [ %73, %77 ], [ %73, %75 ], [ %73, %75 ], [ %73, %75 ], [ %73, %75 ], [ %73, %75 ], [ %67, %66 ], [ %2, %70 ]
  %82 = add i32 %.2, -1
  br label %.sink.split

.sink.split:                                      ; preds = %43, %81, %.thread3
  %.sink33 = phi i64 [ 48, %.thread3 ], [ 56, %81 ], [ 48, %43 ]
  %.sink.in.sink = phi i32 [ %55, %.thread3 ], [ %82, %81 ], [ %.sink.in, %43 ]
  %83 = getelementptr inbounds nuw i8, ptr %3, i64 %.sink33
  store i32 %.sink.in.sink, ptr %83, align 4
  br label %.sink.split34

.sink.split34:                                    ; preds = %.loopexit, %.sink.split, %11
  %84 = getelementptr inbounds nuw i8, ptr %3, i64 32
  %85 = load i32, ptr %84, align 4
  br label %86

86:                                               ; preds = %.sink.split34, %11, %4
  %.0 = phi i32 [ -1, %4 ], [ -1, %11 ], [ %85, %.sink.split34 ]
  call void @llvm.lifetime.end.p0(i64 1, ptr nonnull %5) #18
  ret i32 %.0
}